target datalayout = "e-m:e-p270:32:32-p271:32:32-p272:64:64-i64:64-i128:128-f80:128-n8:16:32:64-S128"
target triple = "x86_64-pc-linux-gnu"

%"class.std::unique_ptr" = type { %"struct.std::__uniq_ptr_data" }
%"struct.std::__uniq_ptr_data" = type { %"class.std::__uniq_ptr_impl" }
%"class.std::__uniq_ptr_impl" = type { %"class.std::tuple" }
%"class.std::tuple" = type { %"struct.std::_Tuple_impl" }
%"struct.std::_Tuple_impl" = type { %"struct.std::_Head_base.11" }
%"struct.std::_Head_base.11" = type { ptr }
%"class.ue2::RoseProgram" = type { %"class.std::vector.5" }
%"class.std::vector.5" = type { %"struct.std::_Vector_base.6" }
%"struct.std::_Vector_base.6" = type { %"struct.std::_Vector_base<std::unique_ptr<ue2::RoseInstruction>, std::allocator<std::unique_ptr<ue2::RoseInstruction>>>::_Vector_impl" }
%"struct.std::_Vector_base<std::unique_ptr<ue2::RoseInstruction>, std::allocator<std::unique_ptr<ue2::RoseInstruction>>>::_Vector_impl" = type { %"struct.std::_Vector_base<std::unique_ptr<ue2::RoseInstruction>, std::allocator<std::unique_ptr<ue2::RoseInstruction>>>::_Vector_impl_data" }
%"struct.std::_Vector_base<std::unique_ptr<ue2::RoseInstruction>, std::allocator<std::unique_ptr<ue2::RoseInstruction>>>::_Vector_impl_data" = type { ptr, ptr, ptr }
%"class.__gnu_cxx::__normal_iterator" = type { ptr }
%"struct.ue2::RoseResources" = type { i8, i8, i8, i8, i8, i8, i8, i8, i8, i8, i8, i8, i8 }

; Function Attrs: mustprogress nounwind uwtable
define linkonce_odr hidden noundef nonnull align 8 dereferenceable(8) ptr @_ZNSt10_Head_baseILm0EPN3ue215RoseInstructionELb0EE7_M_headERKS3_(ptr noundef nonnull align 8 dereferenceable(8) %0) #1 comdat align 2 {
  %2 = alloca ptr, align 8
  store ptr %0, ptr %2, align 8
  %3 = load ptr, ptr %2, align 8
  %4 = getelementptr inbounds nuw %"struct.std::_Head_base.11", ptr %3, i32 0, i32 0
  ret ptr %4
}

; Function Attrs: mustprogress nounwind uwtable
define linkonce_odr hidden noundef nonnull align 8 dereferenceable(8) ptr @_ZNSt11_Tuple_implILm0EJPN3ue215RoseInstructionESt14default_deleteIS1_EEE7_M_headERKS5_(ptr noundef nonnull align 8 dereferenceable(8) %0) #1 comdat align 2 {
  %2 = alloca ptr, align 8
  store ptr %0, ptr %2, align 8
  %3 = load ptr, ptr %2, align 8
  %4 = call noundef nonnull align 8 dereferenceable(8) ptr @_ZNSt10_Head_baseILm0EPN3ue215RoseInstructionELb0EE7_M_headERKS3_(ptr noundef nonnull align 8 dereferenceable(8) %3) #23
  ret ptr %4
}

; Function Attrs: mustprogress nounwind uwtable
define linkonce_odr hidden noundef nonnull align 8 dereferenceable(8) ptr @_ZSt12__get_helperILm0EPN3ue215RoseInstructionEJSt14default_deleteIS1_EEERKT0_RKSt11_Tuple_implIXT_EJS5_DpT1_EE(ptr noundef nonnull align 8 dereferenceable(8) %0) #1 comdat {
  %2 = alloca ptr, align 8
  store ptr %0, ptr %2, align 8
  %3 = load ptr, ptr %2, align 8
  %4 = call noundef nonnull align 8 dereferenceable(8) ptr @_ZNSt11_Tuple_implILm0EJPN3ue215RoseInstructionESt14default_deleteIS1_EEE7_M_headERKS5_(ptr noundef nonnull align 8 dereferenceable(8) %3) #23
  ret ptr %4
}

; Function Attrs: mustprogress nounwind uwtable
define linkonce_odr hidden noundef nonnull align 8 dereferenceable(8) ptr @_ZSt3getILm0EJPN3ue215RoseInstructionESt14default_deleteIS1_EEERKNSt13tuple_elementIXT_ESt5tupleIJDpT0_EEE4typeERKS9_(ptr noundef nonnull align 8 dereferenceable(8) %0) #1 comdat {
  %2 = alloca ptr, align 8
  store ptr %0, ptr %2, align 8
  %3 = load ptr, ptr %2, align 8
  %4 = call noundef nonnull align 8 dereferenceable(8) ptr @_ZSt12__get_helperILm0EPN3ue215RoseInstructionEJSt14default_deleteIS1_EEERKT0_RKSt11_Tuple_implIXT_EJS5_DpT1_EE(ptr noundef nonnull align 8 dereferenceable(8) %3) #23
  ret ptr %4
}

; Function Attrs: mustprogress nounwind uwtable
define linkonce_odr hidden noundef ptr @_ZNKSt15__uniq_ptr_implIN3ue215RoseInstructionESt14default_deleteIS1_EE6_M_ptrEv(ptr noundef nonnull align 8 dereferenceable(8) %0) #1 comdat align 2 {
  %2 = alloca ptr, align 8
  store ptr %0, ptr %2, align 8
  %3 = load ptr, ptr %2, align 8
  %4 = getelementptr inbounds nuw %"class.std::__uniq_ptr_impl", ptr %3, i32 0, i32 0
  %5 = call noundef nonnull align 8 dereferenceable(8) ptr @_ZSt3getILm0EJPN3ue215RoseInstructionESt14default_deleteIS1_EEERKNSt13tuple_elementIXT_ESt5tupleIJDpT0_EEE4typeERKS9_(ptr noundef nonnull align 8 dereferenceable(8) %4) #23
  %6 = load ptr, ptr %5, align 8
  ret ptr %6
}

; Function Attrs: mustprogress nounwind uwtable
define linkonce_odr hidden void @_ZN9__gnu_cxx17__normal_iteratorIPKSt10unique_ptrIN3ue215RoseInstructionESt14default_deleteIS3_EESt6vectorIS6_SaIS6_EEEC2ERKS8_(ptr noundef nonnull align 8 dereferenceable(8) %0, ptr noundef nonnull align 8 dereferenceable(8) %1) unnamed_addr #1 comdat align 2 {
  %3 = alloca ptr, align 8
  %4 = alloca ptr, align 8
  store ptr %0, ptr %3, align 8
  store ptr %1, ptr %4, align 8
  %5 = load ptr, ptr %3, align 8
  %6 = getelementptr inbounds nuw %"class.__gnu_cxx::__normal_iterator", ptr %5, i32 0, i32 0
  %7 = load ptr, ptr %4, align 8
  %8 = load ptr, ptr %7, align 8
  store ptr %8, ptr %6, align 8
  ret void
}

; Function Attrs: mustprogress nounwind uwtable
define linkonce_odr hidden noundef ptr @_ZNKSt10unique_ptrIN3ue215RoseInstructionESt14default_deleteIS1_EE3getEv(ptr noundef nonnull align 8 dereferenceable(8) %0) #1 comdat align 2 {
  %2 = alloca ptr, align 8
  store ptr %0, ptr %2, align 8
  %3 = load ptr, ptr %2, align 8
  %4 = getelementptr inbounds nuw %"class.std::unique_ptr", ptr %3, i32 0, i32 0
  %5 = call noundef ptr @_ZNKSt15__uniq_ptr_implIN3ue215RoseInstructionESt14default_deleteIS1_EE6_M_ptrEv(ptr noundef nonnull align 8 dereferenceable(8) %4) #23
  ret ptr %5
}

; Function Attrs: mustprogress nounwind uwtable
define linkonce_odr hidden noundef nonnull align 8 dereferenceable(8) ptr @_ZNK9__gnu_cxx17__normal_iteratorIPKSt10unique_ptrIN3ue215RoseInstructionESt14default_deleteIS3_EESt6vectorIS6_SaIS6_EEE4baseEv(ptr noundef nonnull align 8 dereferenceable(8) %0) #1 comdat align 2 {
  %2 = alloca ptr, align 8
  store ptr %0, ptr %2, align 8
  %3 = load ptr, ptr %2, align 8
  %4 = getelementptr inbounds nuw %"class.__gnu_cxx::__normal_iterator", ptr %3, i32 0, i32 0
  ret ptr %4
}

; Function Attrs: mustprogress nounwind uwtable
define linkonce_odr hidden ptr @_ZNKSt6vectorISt10unique_ptrIN3ue215RoseInstructionESt14default_deleteIS2_EESaIS5_EE3endEv(ptr noundef nonnull align 8 dereferenceable(24) %0) #1 comdat align 2 {
  %2 = alloca %"class.__gnu_cxx::__normal_iterator", align 8
  %3 = alloca ptr, align 8
  store ptr %0, ptr %3, align 8
  %4 = load ptr, ptr %3, align 8
  %5 = getelementptr inbounds nuw %"struct.std::_Vector_base.6", ptr %4, i32 0, i32 0
  %6 = getelementptr inbounds nuw %"struct.std::_Vector_base<std::unique_ptr<ue2::RoseInstruction>, std::allocator<std::unique_ptr<ue2::RoseInstruction>>>::_Vector_impl_data", ptr %5, i32 0, i32 1
  call void @_ZN9__gnu_cxx17__normal_iteratorIPKSt10unique_ptrIN3ue215RoseInstructionESt14default_deleteIS3_EESt6vectorIS6_SaIS6_EEEC2ERKS8_(ptr noundef nonnull align 8 dereferenceable(8) %2, ptr noundef nonnull align 8 dereferenceable(8) %6) #23
  %7 = getelementptr inbounds nuw %"class.__gnu_cxx::__normal_iterator", ptr %2, i32 0, i32 0
  %8 = load ptr, ptr %7, align 8
  ret ptr %8
}

; Function Attrs: mustprogress nounwind uwtable
define linkonce_odr hidden ptr @_ZNKSt6vectorISt10unique_ptrIN3ue215RoseInstructionESt14default_deleteIS2_EESaIS5_EE5beginEv(ptr noundef nonnull align 8 dereferenceable(24) %0) #1 comdat align 2 {
  %2 = alloca %"class.__gnu_cxx::__normal_iterator", align 8
  %3 = alloca ptr, align 8
  store ptr %0, ptr %3, align 8
  %4 = load ptr, ptr %3, align 8
  %5 = getelementptr inbounds nuw %"struct.std::_Vector_base.6", ptr %4, i32 0, i32 0
  %6 = getelementptr inbounds nuw %"struct.std::_Vector_base<std::unique_ptr<ue2::RoseInstruction>, std::allocator<std::unique_ptr<ue2::RoseInstruction>>>::_Vector_impl_data", ptr %5, i32 0, i32 0
  call void @_ZN9__gnu_cxx17__normal_iteratorIPKSt10unique_ptrIN3ue215RoseInstructionESt14default_deleteIS3_EESt6vectorIS6_SaIS6_EEEC2ERKS8_(ptr noundef nonnull align 8 dereferenceable(8) %2, ptr noundef nonnull align 8 dereferenceable(8) %6) #23
  %7 = getelementptr inbounds nuw %"class.__gnu_cxx::__normal_iterator", ptr %2, i32 0, i32 0
  %8 = load ptr, ptr %7, align 8
  ret ptr %8
}

; Function Attrs: mustprogress nounwind uwtable
define linkonce_odr hidden noundef nonnull align 8 dereferenceable(8) ptr @_ZN9__gnu_cxx17__normal_iteratorIPKSt10unique_ptrIN3ue215RoseInstructionESt14default_deleteIS3_EESt6vectorIS6_SaIS6_EEEppEv(ptr noundef nonnull align 8 dereferenceable(8) %0) #1 comdat align 2 {
  %2 = alloca ptr, align 8
  store ptr %0, ptr %2, align 8
  %3 = load ptr, ptr %2, align 8
  %4 = getelementptr inbounds nuw %"class.__gnu_cxx::__normal_iterator", ptr %3, i32 0, i32 0
  %5 = load ptr, ptr %4, align 8
  %6 = getelementptr inbounds nuw %"class.std::unique_ptr", ptr %5, i32 1
  store ptr %6, ptr %4, align 8
  ret ptr %3
}

; Function Attrs: mustprogress nounwind uwtable
define linkonce_odr hidden noundef ptr @_ZNKSt10unique_ptrIN3ue215RoseInstructionESt14default_deleteIS1_EEptEv(ptr noundef nonnull align 8 dereferenceable(8) %0) #1 comdat align 2 {
  %2 = alloca ptr, align 8
  store ptr %0, ptr %2, align 8
  %3 = load ptr, ptr %2, align 8
  %4 = call noundef ptr @_ZNKSt10unique_ptrIN3ue215RoseInstructionESt14default_deleteIS1_EE3getEv(ptr noundef nonnull align 8 dereferenceable(8) %3) #23
  ret ptr %4
}

; Function Attrs: mustprogress nounwind uwtable
define linkonce_odr hidden noundef nonnull align 8 dereferenceable(8) ptr @_ZNK9__gnu_cxx17__normal_iteratorIPKSt10unique_ptrIN3ue215RoseInstructionESt14default_deleteIS3_EESt6vectorIS6_SaIS6_EEEdeEv(ptr noundef nonnull align 8 dereferenceable(8) %0) #1 comdat align 2 {
  %2 = alloca ptr, align 8
  store ptr %0, ptr %2, align 8
  %3 = load ptr, ptr %2, align 8
  %4 = getelementptr inbounds nuw %"class.__gnu_cxx::__normal_iterator", ptr %3, i32 0, i32 0
  %5 = load ptr, ptr %4, align 8
  ret ptr %5
}

; Function Attrs: inlinehint mustprogress nounwind uwtable
define linkonce_odr hidden noundef zeroext i1 @_ZN9__gnu_cxxneIPKSt10unique_ptrIN3ue215RoseInstructionESt14default_deleteIS3_EESt6vectorIS6_SaIS6_EEEEbRKNS_17__normal_iteratorIT_T0_EESH_(ptr noundef nonnull align 8 dereferenceable(8) %0, ptr noundef nonnull align 8 dereferenceable(8) %1) #8 comdat {
  %3 = alloca ptr, align 8
  %4 = alloca ptr, align 8
  store ptr %0, ptr %3, align 8
  store ptr %1, ptr %4, align 8
  %5 = load ptr, ptr %3, align 8
  %6 = call noundef nonnull align 8 dereferenceable(8) ptr @_ZNK9__gnu_cxx17__normal_iteratorIPKSt10unique_ptrIN3ue215RoseInstructionESt14default_deleteIS3_EESt6vectorIS6_SaIS6_EEE4baseEv(ptr noundef nonnull align 8 dereferenceable(8) %5) #23
  %7 = load ptr, ptr %6, align 8
  %8 = load ptr, ptr %4, align 8
  %9 = call noundef nonnull align 8 dereferenceable(8) ptr @_ZNK9__gnu_cxx17__normal_iteratorIPKSt10unique_ptrIN3ue215RoseInstructionESt14default_deleteIS3_EESt6vectorIS6_SaIS6_EEE4baseEv(ptr noundef nonnull align 8 dereferenceable(8) %8) #23
  %10 = load ptr, ptr %9, align 8
  %11 = icmp ne ptr %7, %10
  ret i1 %11
}

; Function Attrs: mustprogress nounwind uwtable
define linkonce_odr hidden ptr @_ZNK3ue211RoseProgram3endEv(ptr noundef nonnull align 8 dereferenceable(24) %0) #1 comdat align 2 {
  %2 = alloca %"class.__gnu_cxx::__normal_iterator", align 8
  %3 = alloca ptr, align 8
  store ptr %0, ptr %3, align 8
  %4 = load ptr, ptr %3, align 8
  %5 = getelementptr inbounds nuw %"class.ue2::RoseProgram", ptr %4, i32 0, i32 0
  %6 = call ptr @_ZNKSt6vectorISt10unique_ptrIN3ue215RoseInstructionESt14default_deleteIS2_EESaIS5_EE3endEv(ptr noundef nonnull align 8 dereferenceable(24) %5) #23
  %7 = getelementptr inbounds nuw %"class.__gnu_cxx::__normal_iterator", ptr %2, i32 0, i32 0
  store ptr %6, ptr %7, align 8
  %8 = getelementptr inbounds nuw %"class.__gnu_cxx::__normal_iterator", ptr %2, i32 0, i32 0
  %9 = load ptr, ptr %8, align 8
  ret ptr %9
}

; Function Attrs: mustprogress nounwind uwtable
define linkonce_odr hidden ptr @_ZNK3ue211RoseProgram5beginEv(ptr noundef nonnull align 8 dereferenceable(24) %0) #1 comdat align 2 {
  %2 = alloca %"class.__gnu_cxx::__normal_iterator", align 8
  %3 = alloca ptr, align 8
  store ptr %0, ptr %3, align 8
  %4 = load ptr, ptr %3, align 8
  %5 = getelementptr inbounds nuw %"class.ue2::RoseProgram", ptr %4, i32 0, i32 0
  %6 = call ptr @_ZNKSt6vectorISt10unique_ptrIN3ue215RoseInstructionESt14default_deleteIS2_EESaIS5_EE5beginEv(ptr noundef nonnull align 8 dereferenceable(24) %5) #23
  %7 = getelementptr inbounds nuw %"class.__gnu_cxx::__normal_iterator", ptr %2, i32 0, i32 0
  store ptr %6, ptr %7, align 8
  %8 = getelementptr inbounds nuw %"class.__gnu_cxx::__normal_iterator", ptr %2, i32 0, i32 0
  %9 = load ptr, ptr %8, align 8
  ret ptr %9
}

; Function Attrs: mustprogress uwtable
define hidden void @_ZN3ue215recordResourcesERNS_13RoseResourcesERKNS_11RoseProgramE(ptr noundef nonnull align 1 dereferenceable(13) %0, ptr noundef nonnull align 8 dereferenceable(24) %1) #3 {
  %3 = alloca ptr, align 8
  %4 = alloca ptr, align 8
  %5 = alloca ptr, align 8
  %6 = alloca %"class.__gnu_cxx::__normal_iterator", align 8
  %7 = alloca %"class.__gnu_cxx::__normal_iterator", align 8
  %8 = alloca ptr, align 8
  store ptr %0, ptr %3, align 8
  store ptr %1, ptr %4, align 8
  call void @llvm.lifetime.start.p0(i64 8, ptr %5) #23
  %9 = load ptr, ptr %4, align 8
  store ptr %9, ptr %5, align 8
  call void @llvm.lifetime.start.p0(i64 8, ptr %6) #23
  %10 = load ptr, ptr %5, align 8
  %11 = call ptr @_ZNK3ue211RoseProgram5beginEv(ptr noundef nonnull align 8 dereferenceable(24) %10)
  %12 = getelementptr inbounds nuw %"class.__gnu_cxx::__normal_iterator", ptr %6, i32 0, i32 0
  store ptr %11, ptr %12, align 8
  call void @llvm.lifetime.start.p0(i64 8, ptr %7) #23
  %13 = load ptr, ptr %5, align 8
  %14 = call ptr @_ZNK3ue211RoseProgram3endEv(ptr noundef nonnull align 8 dereferenceable(24) %13)
  %15 = getelementptr inbounds nuw %"class.__gnu_cxx::__normal_iterator", ptr %7, i32 0, i32 0
  store ptr %14, ptr %15, align 8
  br label %16

16:                                               ; preds = %47, %2
  %17 = call noundef zeroext i1 @_ZN9__gnu_cxxneIPKSt10unique_ptrIN3ue215RoseInstructionESt14default_deleteIS3_EESt6vectorIS6_SaIS6_EEEEbRKNS_17__normal_iteratorIT_T0_EESH_(ptr noundef nonnull align 8 dereferenceable(8) %6, ptr noundef nonnull align 8 dereferenceable(8) %7) #23
  br i1 %17, label %19, label %18

18:                                               ; preds = %16
  call void @llvm.lifetime.end.p0(i64 8, ptr %7) #23
  call void @llvm.lifetime.end.p0(i64 8, ptr %6) #23
  call void @llvm.lifetime.end.p0(i64 8, ptr %5) #23
  br label %49

19:                                               ; preds = %16
  call void @llvm.lifetime.start.p0(i64 8, ptr %8) #23
  %20 = call noundef nonnull align 8 dereferenceable(8) ptr @_ZNK9__gnu_cxx17__normal_iteratorIPKSt10unique_ptrIN3ue215RoseInstructionESt14default_deleteIS3_EESt6vectorIS6_SaIS6_EEEdeEv(ptr noundef nonnull align 8 dereferenceable(8) %6) #23
  store ptr %20, ptr %8, align 8
  %21 = load ptr, ptr %8, align 8
  %22 = call noundef ptr @_ZNKSt10unique_ptrIN3ue215RoseInstructionESt14default_deleteIS1_EEptEv(ptr noundef nonnull align 8 dereferenceable(8) %21) #23
  %23 = load ptr, ptr %22, align 8
  %24 = getelementptr inbounds ptr, ptr %23, i64 2
  %25 = load ptr, ptr %24, align 8
  %26 = call noundef i32 %25(ptr noundef nonnull align 8 dereferenceable(8) %22)
  switch i32 %26, label %45 [
    i32 27, label %27
    i32 26, label %30
    i32 16, label %30
    i32 17, label %30
    i32 23, label %30
    i32 41, label %33
    i32 44, label %33
    i32 45, label %33
    i32 46, label %33
    i32 3, label %36
    i32 18, label %39
    i32 51, label %42
    i32 52, label %42
  ]

27:                                               ; preds = %19
  %28 = load ptr, ptr %3, align 8
  %29 = getelementptr inbounds nuw %"struct.ue2::RoseResources", ptr %28, i32 0, i32 1
  store i8 1, ptr %29, align 1
  br label %46

30:                                               ; preds = %19, %19, %19, %19
  %31 = load ptr, ptr %3, align 8
  %32 = getelementptr inbounds nuw %"struct.ue2::RoseResources", ptr %31, i32 0, i32 2
  store i8 1, ptr %32, align 1
  br label %46

33:                                               ; preds = %19, %19, %19, %19
  %34 = load ptr, ptr %3, align 8
  %35 = getelementptr inbounds nuw %"struct.ue2::RoseResources", ptr %34, i32 0, i32 4
  store i8 1, ptr %35, align 1
  br label %46

36:                                               ; preds = %19
  %37 = load ptr, ptr %3, align 8
  %38 = getelementptr inbounds nuw %"struct.ue2::RoseResources", ptr %37, i32 0, i32 5
  store i8 1, ptr %38, align 1
  br label %46

39:                                               ; preds = %19
  %40 = load ptr, ptr %3, align 8
  %41 = getelementptr inbounds nuw %"struct.ue2::RoseResources", ptr %40, i32 0, i32 6
  store i8 1, ptr %41, align 1
  br label %46

42:                                               ; preds = %19, %19
  %43 = load ptr, ptr %3, align 8
  %44 = getelementptr inbounds nuw %"struct.ue2::RoseResources", ptr %43, i32 0, i32 7
  store i8 1, ptr %44, align 1
  br label %46

45:                                               ; preds = %19
  br label %46

46:                                               ; preds = %45, %42, %39, %36, %33, %30, %27
  call void @llvm.lifetime.end.p0(i64 8, ptr %8) #23
  br label %47

47:                                               ; preds = %46
  %48 = call noundef nonnull align 8 dereferenceable(8) ptr @_ZN9__gnu_cxx17__normal_iteratorIPKSt10unique_ptrIN3ue215RoseInstructionESt14default_deleteIS3_EESt6vectorIS6_SaIS6_EEEppEv(ptr noundef nonnull align 8 dereferenceable(8) %6) #23
  br label %16

49:                                               ; preds = %18
  ret void
}