; Function Attrs: mustprogress uwtable
define hidden void @_ZN3ue215recordResourcesERNS_13RoseResourcesERKNS_11RoseProgramE(ptr noundef nonnull writeonly align 1 captures(none) dereferenceable(13) %0, ptr noundef nonnull readonly align 8 captures(none) dereferenceable(24) %1) local_unnamed_addr #0 {
  %3 = load ptr, ptr %1, align 8
  %4 = getelementptr inbounds nuw i8, ptr %1, i64 8
  %5 = load ptr, ptr %4, align 8
  %.not13 = icmp eq ptr %3, %5
  br i1 %.not13, label %._crit_edge, label %.lr.ph

.lr.ph:                                           ; preds = %2
  %6 = getelementptr inbounds nuw i8, ptr %0, i64 7
  %7 = getelementptr inbounds nuw i8, ptr %0, i64 6
  %8 = getelementptr inbounds nuw i8, ptr %0, i64 5
  %9 = getelementptr inbounds nuw i8, ptr %0, i64 4
  %10 = getelementptr inbounds nuw i8, ptr %0, i64 2
  %11 = getelementptr inbounds nuw i8, ptr %0, i64 1
  br label %12

._crit_edge:                                      ; preds = %24, %2
  ret void

12:                                               ; preds = %.lr.ph, %24
  %.sroa.010.014 = phi ptr [ %3, %.lr.ph ], [ %25, %24 ]
  %13 = load ptr, ptr %.sroa.010.014, align 8
  %14 = load ptr, ptr %13, align 8
  %15 = getelementptr inbounds nuw i8, ptr %14, i64 16
  %16 = load ptr, ptr %15, align 8
  %17 = tail call noundef i32 %16(ptr noundef nonnull align 8 dereferenceable(8) %13)
  switch i32 %17, label %24 [
    i32 27, label %18
    i32 26, label %19
    i32 16, label %19
    i32 17, label %19
    i32 23, label %19
    i32 41, label %20
    i32 44, label %20
    i32 45, label %20
    i32 46, label %20
    i32 3, label %21
    i32 18, label %22
    i32 51, label %23
    i32 52, label %23
  ]

18:                                               ; preds = %12
  store i8 1, ptr %11, align 1
  br label %24

19:                                               ; preds = %12, %12, %12, %12
  store i8 1, ptr %10, align 1
  br label %24

20:                                               ; preds = %12, %12, %12, %12
  store i8 1, ptr %9, align 1
  br label %24

21:                                               ; preds = %12
  store i8 1, ptr %8, align 1
  br label %24

22:                                               ; preds = %12
  store i8 1, ptr %7, align 1
  br label %24

23:                                               ; preds = %12, %12
  store i8 1, ptr %6, align 1
  br label %24

24:                                               ; preds = %12, %23, %22, %21, %20, %19, %18
  %25 = getelementptr inbounds nuw i8, ptr %.sroa.010.014, i64 8
  %.not = icmp eq ptr %25, %5
  br i1 %.not, label %._crit_edge, label %12
}